(ipath_class
Observation
p0
(dp1
S't_start'
p2
F0.0
sS'T'
p3
(lp4
F5.2925
aF7.5585
aF8.0185
aF8.3275
aF9.7175
aF10.5065
aF11.8015
aF11.9695
aF27.1295
aF28.6015
aF32.8255
aF35.4485
aF35.5025
aF47.6675
aF50.9685
aF53.2465
aF55.4245
aF58.3145
aF62.9995
aF69.0355
aF70.2345
aF70.8785
aF71.7115
aF74.2485
aF85.3975
aF92.5155
aF93.2045
aF105.5095
aF107.6315
aF108.1325
aF123.8465
aF127.4255
aF132.8335
aF137.1475
aF144.1905
aF145.0815
aF148.3875
aF151.3725
aF169.3695
aF176.0565
aF176.1675
aF180.7335
aF180.7455
aF181.9815
aF191.3145
aF194.8735
aF199.4025
aF205.1495
aF205.9205
aF209.8065
aF211.3805
aF218.6465
aF220.3355
aF231.4025
aF232.8175
aF235.3045
aF240.2355
aF262.6625
aF266.0375
aF269.6865
aF271.0735
aF276.1395
aF276.7875
aF280.9695
aF298.4405
aF298.4735
aF302.6075
aF308.0435
aF311.1995
aF314.2315
aF321.3635
aF322.6295
aF354.3915
aF365.3075
aF365.3615
aF366.3095
aF366.6945
aF366.8025
aF368.8085
aF375.8805
aF381.2405
aF395.2375
aF396.2535
aF406.2995
aF408.3835
aF415.6455
aF446.4005
aF447.5285
aF460.3265
aF470.4945
aF475.4135
aF479.5615
aF480.7425
aF489.0405
aF495.9425
aF497.9465
aF511.3435
aF515.7515
aF517.5645
aF522.9685
aF526.5885
aF530.6405
aF533.2075
aF538.0815
aF586.1515
aF589.4435
aF609.2435
aF628.8975
aF629.2035
aF643.6045
aF650.9705
aF667.2625
aF670.6265
aF686.8735
aF698.8145
aF700.9805
aF702.5665
aF713.2975
aF713.5435
aF721.1885
aF725.2765
aF741.0395
aF746.0655
aF748.7405
aF751.3095
aF758.5895
aF760.7865
aF764.0425
aF764.1385
aF773.8625
aF785.7505
aF787.8345
aF795.3725
aF797.6275
aF807.9925
aF809.4695
aF811.5055
aF812.2695
aF812.4315
aF824.6875
aF825.4255
aF834.6135
aF838.1375
aF846.2345
aF848.4265
aF850.9085
aF853.3475
aF853.7225
aF857.3325
aF859.2085
aF863.1005
aF863.2205
aF881.1925
aF882.2125
aF886.0485
aF887.4505
aF887.4715
aF889.0945
aF891.2655
aF895.9545
aF901.4135
aF909.4075
aF911.5635
aF925.5445
aF928.3435
aF930.8935
aF937.9305
aF938.7675
aF952.0255
aF953.7255
aF966.2375
aF973.7835
aF975.4205
aF982.4295
aF983.3165
aF990.5075
aF992.4765
aF1020.582
aF1043.689
aF1054.474
aF1057.42
aF1063.943
aF1068.3
aF1069.037
aF1069.412
aF1070.611
aF1075.966
aF1079.09
aF1083.749
aF1085.153
aF1085.328
aF1091.158
aF1100.568
aF1102.624
aF1117.302
aF1118.918
aF1129.231
aF1131.324
aF1132.49
aF1142.38
aF1143.704
aF1149.941
aF1150.793
aF1151.787
aF1159.34
aF1160.644
aF1179.287
aF1184.296
aF1186.103
aF1186.119
aF1186.185
aF1207.949
aF1214.548
aF1220.111
aF1222.878
aF1231.646
aF1236.477
aF1237.561
aF1248.255
aF1256.563
aF1261.349
aF1263.704
aF1272.532
aF1307.776
aF1314.816
aF1315.347
aF1316.448
aF1317.309
aF1318.032
aF1318.089
aF1326.532
aF1327.78
aF1330.548
aF1337.986
aF1338.505
aF1339.367
aF1345.211
aF1345.397
aF1345.685
aF1349.566
aF1373.329
aF1394.787
aF1409.254
aF1410.966
aF1417.457
aF1434.287
aF1437.825
aF1441.178
aF1445.229
aF1447.03
aF1458.825
aF1461.897
aF1464.606
aF1478.178
aF1486.865
aF1511.9
aF1525.494
aF1530.088
aF1539.725
aF1546.204
aF1546.269
aF1548.318
aF1549.845
aF1555.485
aF1572.068
aF1576.188
aF1576.852
aF1583.595
aF1585.861
aF1587.296
aF1588.887
aF1599.16
aF1607.392
aF1608.264
aF1611.787
aF1621.738
aF1627.566
aF1632.633
aF1636.938
aF1636.957
aF1638.764
aF1638.91
aF1640.45
aF1653.858
aF1662.354
aF1675.001
aF1681.839
aF1683.581
aF1683.898
aF1684.861
aF1689.486
aF1692.78
aF1699.861
aF1706.2
aF1714.296
aF1717.749
aF1719.014
aF1727.068
aF1740.159
aF1743.011
aF1750.379
aF1753.147
aF1754.42
aF1754.508
aF1769.25
aF1776.703
aF1781.207
aF1794.591
aF1795.456
aF1795.467
aF1797.142
aF1798.609
aF1812.832
aF1825.396
aF1833.159
aF1833.255
aF1842.135
aF1843.287
aF1845.03
aF1846.982
aF1850.133
aF1858.313
aF1869.159
aF1877.305
aF1879.18
aF1881.141
aF1881.984
aF1882.352
aF1889.377
aF1891.548
aF1892.639
aF1909.468
aF1918.481
aF1920.691
aF1921.048
aF1924.924
aF1928.852
aF1948.861
aF1958.617
aF1961.399
aF1967.489
aF1979.312
aF1989.311
aF1993.529
aF2001.139
aF2004.39
aF2006.314
aF2027.958
aF2034.54
aF2035.809
aF2044.162
aF2044.548
aF2051.305
aF2053.807
aF2077.764
aF2082.221
aF2087.28
aF2087.529
aF2088.276
aF2098.784
aF2122.302
aF2124.258
aF2138.323
aF2162.497
aF2168.11
aF2186.503
aF2195.876
aF2199.135
aF2199.32
aF2200.005
aF2214.66
aF2215.012
aF2224.868
aF2230.278
aF2240.53
aF2260.521
aF2275.226
aF2277.56
aF2282.394
aF2282.499
aF2282.517
aF2316.193
asS'O'
p5
(lp6
I1
aI1
aI1
aI1
aI1
aI1
aI1
aI1
aI1
aI1
aI1
aI1
aI1
aI1
aI1
aI1
aI1
aI1
aI1
aI1
aI1
aI1
aI1
aI1
aI1
aI1
aI1
aI1
aI1
aI1
aI1
aI1
aI1
aI1
aI1
aI1
aI1
aI1
aI1
aI1
aI1
aI1
aI1
aI1
aI1
aI1
aI1
aI1
aI1
aI1
aI1
aI1
aI1
aI1
aI1
aI1
aI1
aI1
aI1
aI1
aI1
aI1
aI1
aI1
aI1
aI1
aI1
aI1
aI1
aI1
aI1
aI1
aI1
aI1
aI1
aI1
aI1
aI1
aI1
aI1
aI1
aI1
aI1
aI1
aI1
aI1
aI1
aI1
aI1
aI1
aI1
aI1
aI1
aI1
aI1
aI1
aI1
aI1
aI1
aI1
aI1
aI1
aI1
aI1
aI1
aI1
aI1
aI1
aI1
aI1
aI1
aI1
aI1
aI1
aI1
aI1
aI1
aI1
aI1
aI1
aI1
aI1
aI1
aI1
aI1
aI1
aI1
aI1
aI1
aI1
aI1
aI1
aI1
aI1
aI1
aI1
aI1
aI1
aI1
aI1
aI1
aI1
aI1
aI1
aI1
aI1
aI1
aI1
aI1
aI1
aI1
aI1
aI1
aI1
aI1
aI1
aI1
aI1
aI1
aI1
aI1
aI1
aI1
aI1
aI1
aI1
aI1
aI1
aI1
aI1
aI1
aI1
aI1
aI1
aI1
aI1
aI1
aI1
aI1
aI1
aI1
aI1
aI1
aI1
aI1
aI1
aI1
aI1
aI1
aI1
aI1
aI1
aI1
aI1
aI1
aI1
aI1
aI1
aI1
aI1
aI1
aI1
aI1
aI1
aI1
aI1
aI1
aI1
aI1
aI1
aI1
aI1
aI1
aI1
aI1
aI1
aI1
aI1
aI1
aI1
aI1
aI1
aI1
aI1
aI1
aI1
aI1
aI1
aI1
aI1
aI1
aI1
aI1
aI1
aI1
aI1
aI1
aI1
aI1
aI1
aI1
aI1
aI1
aI1
aI1
aI1
aI1
aI1
aI1
aI1
aI1
aI1
aI1
aI1
aI1
aI1
aI1
aI1
aI1
aI1
aI1
aI1
aI1
aI1
aI1
aI1
aI1
aI1
aI1
aI1
aI1
aI1
aI1
aI1
aI1
aI1
aI1
aI1
aI1
aI1
aI1
aI1
aI1
aI1
aI1
aI1
aI1
aI1
aI1
aI1
aI1
aI1
aI1
aI1
aI1
aI1
aI1
aI1
aI1
aI1
aI1
aI1
aI1
aI1
aI1
aI1
aI1
aI1
aI1
aI1
aI1
aI1
aI1
aI1
aI1
aI1
aI1
aI1
aI1
aI1
aI1
aI1
aI1
aI1
aI1
aI1
aI1
aI1
aI1
aI1
aI1
aI1
aI1
aI1
aI1
aI1
aI1
aI1
aI1
aI1
aI1
aI1
aI1
aI1
aI1
aI1
aI1
aI1
aI1
aI1
aI1
aI1
aI1
aI1
aI1
aI1
aI1
aI1
aI1
aI1
aI1
aI1
aI1
aI1
aI1
aI1
aI1
aI1
aI1
aI1
aI1
aI1
aI1
aI1
aI1
aI1
aI1
aI1
aI1
aI1
aI1
aI1
asS't_end'
p7
F2319.838
sb.