(ipath_class
Observation
p0
(dp1
S't_start'
p2
F0.0
sS'T'
p3
(lp4
F4.022
aF5.178
aF6.863
aF8.336
aF12.331
aF12.847
aF15.689
aF19.612
aF33.61
aF38.177
aF38.234
aF51.781
aF62.305
aF85.208
aF90.715
aF109.231
aF116.833
aF130.232
aF134.979
aF139.525
aF145.525
aF153.904
aF158.268
aF165.638
aF169.954
aF188.422
aF212.361
aF223.918
aF231.5
aF239.15
aF240.32
aF240.602
aF252.358
aF253.976
aF258.523
aF275.739
aF279.124
aF281.132
aF282.134
aF282.965
aF287.087
aF288.598
aF289.22
aF294.498
aF300.006
aF307.465
aF309.767
aF321.83
aF326.616
aF339.45
aF350.925
aF358.845
aF359.1
aF359.581
aF359.863
aF360.049
aF366.048
aF366.069
aF367.514
aF368.234
aF377.431
aF386.526
aF388.602
aF391.252
aF396.398
aF398.064
aF398.073
aF398.214
aF406.713
aF408.228
aF424.241
aF425.449
aF459.226
aF479.936
aF480.626
aF481.382
aF512.72
aF512.846
aF515.361
aF518.62
aF524.481
aF526.08
aF529.532
aF535.542
aF537.497
aF549.201
aF566.074
aF567.96
aF577.303
aF595.302
aF599.82
aF610.281
aF610.465
aF612.374
aF612.868
aF623.863
aF636.229
aF636.601
aF641.901
aF642.137
aF643.102
aF653.757
aF654.979
aF664.43
aF672.806
aF677.569
aF687.785
aF688.115
aF688.161
aF689.463
aF693.498
aF702.087
aF712.172
aF712.52
aF720.152
aF721.861
aF730.482
aF731.647
aF735.43
aF736.878
aF743.595
aF754.463
aF755.977
aF771.073
aF771.319
aF773.755
aF784.248
aF785.601
aF789.557
aF791.346
aF795.192
aF804.869
aF806.02
aF825.612
aF827.575
aF830.298
aF838.885
aF840.05
aF844.428
aF851.764
aF852.58
aF866.333
aF869.655
aF891.65
aF891.815
aF898.944
aF935.894
aF939.138
aF943.081
aF947.508
aF949.569
aF950.595
aF959.411
aF959.639
aF961.566
aF965.088
aF966.527
aF966.782
aF970.328
aF977.631
aF987.602
aF988.599
aF989.055
aF992.517
aF1006.868
aF1009.725
aF1013.563
aF1027.491
aF1034.005
aF1034.096
aF1035.528
aF1039.121
aF1043.776
aF1052.812
aF1057.269
aF1060.73
aF1066.607
aF1069.197
aF1070.708
aF1071.863
aF1076.409
aF1081.648
aF1082.32
aF1084.081
aF1085.865
aF1100.797
aF1101.516
aF1104.253
aF1108.795
aF1109.67
aF1112.513
aF1127.411
aF1129.243
aF1133.484
aF1141.204
aF1141.369
aF1146.444
aF1160.321
aF1162.164
aF1163.225
aF1164.158
aF1201.611
aF1202.046
aF1205.747
aF1210.826
aF1216.02
aF1225.593
aF1230.567
aF1239.367
aF1240.698
aF1242.377
aF1245.788
aF1269.149
aF1281.07
aF1283.334
aF1284.839
aF1285.16
aF1289.236
aF1290.556
aF1305.623
aF1308.013
aF1313.069
aF1313.145
aF1314.768
aF1345.636
aF1349.796
aF1352.647
aF1355.885
aF1357.742
aF1367.169
aF1367.511
aF1370.392
aF1396.945
aF1407.402
aF1413.092
aF1423.088
aF1430.546
aF1434.652
aF1436.662
aF1436.809
aF1444.007
aF1445.432
aF1446.642
aF1476.52
aF1480.854
aF1484.812
aF1496.591
aF1504.877
aF1508.013
aF1513.773
aF1514.814
aF1517.427
aF1535.396
aF1537.135
aF1543.264
aF1554.516
aF1554.567
aF1556.156
aF1558.806
aF1590.785
aF1592.018
aF1594.548
aF1598.349
aF1610.065
aF1611.609
aF1613.993
aF1627.199
aF1630.373
aF1634.135
aF1637.572
aF1641.385
aF1645.598
aF1649.607
aF1651.413
aF1665.149
aF1666.646
aF1667.833
aF1669.673
aF1680.455
aF1683.565
aF1688.817
aF1692.783
aF1694.599
aF1696.538
aF1732.951
aF1745.189
aF1745.408
aF1749.342
aF1763.567
aF1773.01
aF1785.137
aF1786.715
aF1790.613
aF1792.512
aF1793.891
aF1808.555
aF1809.247
aF1824.088
aF1824.429
aF1824.651
aF1850.158
aF1873.137
aF1873.455
aF1873.677
aF1878.524
aF1883.007
aF1884.412
aF1896.342
aF1899.93
aF1900.871
aF1903.039
aF1912.162
aF1914.045
aF1916.623
aF1921.58
aF1938.07
aF1938.559
aF1939.091
aF1943.53
aF1963.587
aF1965.589
aF1969.861
aF1979.459
aF1982.194
aF1983.482
aF1984.597
aF1987.874
aF1988.338
aF1988.641
aF1993.008
aF1999.458
aF2001.344
aF2005.134
aF2020.078
aF2020.087
aF2031.042
aF2036.527
aF2062.378
aF2075.384
aF2078.695
aF2085.636
aF2087.392
aF2097.174
aF2098.18
aF2098.276
aF2098.828
aF2104.209
aF2105.108
aF2105.654
aF2109.018
aF2109.597
aF2117.609
aF2128.187
aF2131.967
aF2138.684
aF2146.883
aF2151.474
aF2168.125
aF2170.701
aF2203.226
aF2203.409
aF2204.637
aF2210.091
aF2214.244
aF2226.234
aF2236.713
aF2245.747
aF2254.045
aF2256.617
aF2261.186
aF2264.438
aF2264.534
aF2284.757
aF2293.912
aF2298.785
aF2306.394
aF2307.947
aF2310.305
aF2315.941
aF2316.078
asS'O'
p5
(lp6
I1
aI1
aI1
aI1
aI1
aI1
aI1
aI1
aI1
aI1
aI1
aI1
aI1
aI1
aI1
aI1
aI1
aI1
aI1
aI1
aI1
aI1
aI1
aI1
aI1
aI1
aI1
aI1
aI1
aI1
aI1
aI1
aI1
aI1
aI1
aI1
aI1
aI1
aI1
aI1
aI1
aI1
aI1
aI1
aI1
aI1
aI1
aI1
aI1
aI1
aI1
aI1
aI1
aI1
aI1
aI1
aI1
aI1
aI1
aI1
aI1
aI1
aI1
aI1
aI1
aI1
aI1
aI1
aI1
aI1
aI1
aI1
aI1
aI1
aI1
aI1
aI1
aI1
aI1
aI1
aI1
aI1
aI1
aI1
aI1
aI1
aI1
aI1
aI1
aI1
aI1
aI1
aI1
aI1
aI1
aI1
aI1
aI1
aI1
aI1
aI1
aI1
aI1
aI1
aI1
aI1
aI1
aI1
aI1
aI1
aI1
aI1
aI1
aI1
aI1
aI1
aI1
aI1
aI1
aI1
aI1
aI1
aI1
aI1
aI1
aI1
aI1
aI1
aI1
aI1
aI1
aI1
aI1
aI1
aI1
aI1
aI1
aI1
aI1
aI1
aI1
aI1
aI1
aI1
aI1
aI1
aI1
aI1
aI1
aI1
aI1
aI1
aI1
aI1
aI1
aI1
aI1
aI1
aI1
aI1
aI1
aI1
aI1
aI1
aI1
aI1
aI1
aI1
aI1
aI1
aI1
aI1
aI1
aI1
aI1
aI1
aI1
aI1
aI1
aI1
aI1
aI1
aI1
aI1
aI1
aI1
aI1
aI1
aI1
aI1
aI1
aI1
aI1
aI1
aI1
aI1
aI1
aI1
aI1
aI1
aI1
aI1
aI1
aI1
aI1
aI1
aI1
aI1
aI1
aI1
aI1
aI1
aI1
aI1
aI1
aI1
aI1
aI1
aI1
aI1
aI1
aI1
aI1
aI1
aI1
aI1
aI1
aI1
aI1
aI1
aI1
aI1
aI1
aI1
aI1
aI1
aI1
aI1
aI1
aI1
aI1
aI1
aI1
aI1
aI1
aI1
aI1
aI1
aI1
aI1
aI1
aI1
aI1
aI1
aI1
aI1
aI1
aI1
aI1
aI1
aI1
aI1
aI1
aI1
aI1
aI1
aI1
aI1
aI1
aI1
aI1
aI1
aI1
aI1
aI1
aI1
aI1
aI1
aI1
aI1
aI1
aI1
aI1
aI1
aI1
aI1
aI1
aI1
aI1
aI1
aI1
aI1
aI1
aI1
aI1
aI1
aI1
aI1
aI1
aI1
aI1
aI1
aI1
aI1
aI1
aI1
aI1
aI1
aI1
aI1
aI1
aI1
aI1
aI1
aI1
aI1
aI1
aI1
aI1
aI1
aI1
aI1
aI1
aI1
aI1
aI1
aI1
aI1
aI1
aI1
aI1
aI1
aI1
aI1
aI1
aI1
aI1
aI1
aI1
aI1
aI1
aI1
aI1
aI1
aI1
aI1
aI1
aI1
aI1
aI1
aI1
aI1
aI1
aI1
aI1
aI1
aI1
aI1
aI1
aI1
aI1
aI1
aI1
aI1
aI1
aI1
aI1
aI1
aI1
aI1
aI1
aI1
aI1
aI1
aI1
aI1
aI1
aI1
aI1
aI1
asS't_end'
p7
F2319.838
sb.