(ipath_class
Observation
p0
(dp1
S't_start'
p2
F0.0
sS'T'
p3
(lp4
F24.429
aF37.592
aF37.644
aF50.38
aF57.889
aF74.905
aF104.499
aF127.426
aF134.299
aF135.584
aF139.314
aF205.01
aF207.769
aF229.587
aF232.155
aF237.468
aF245.913
aF256.736
aF279.897
aF285.099
aF286.526
aF305.495
aF344.839
aF363.904
aF368.514
aF384.786
aF394.559
aF407.83
aF408.589
aF412.513
aF414.406
aF428.76
aF445.039
aF445.068
aF525.976
aF532.698
aF532.884
aF542.284
aF547.077
aF548.764
aF551.385
aF555.909
aF609.336
aF617.381
aF619.902
aF620.206
aF620.306
aF624.911
aF670.392
aF691.059
aF710.579
aF733.619
aF751.224
aF763.178
aF765.306
aF809.58
aF812.13
aF904.685
aF947.044
aF960.044
aF980.15
aF982.782
aF984.207
aF992.585
aF995.91
aF996.063
aF1004.661
aF1083.796
aF1094.839
aF1107.921
aF1224.481
aF1227.426
aF1230.41
aF1232.659
aF1235.421
aF1246.774
aF1255.612
aF1260.066
aF1287.511
aF1295.329
aF1433.507
aF1449.193
aF1457.043
aF1486.486
aF1566.711
aF1619.383
aF1627.261
aF1634.609
aF1639.655
aF1646.424
aF1676.779
aF1697.846
aF1740.928
aF1769.798
aF1773.837
aF1776.526
aF1885.899
aF1934.541
aF1957.453
aF1972.515
aF1976.392
aF1987.238
aF1992.241
aF2003.606
aF2011.923
aF2013.801
aF2015.601
aF2017.688
aF2043.613
aF2089.557
aF2156.792
aF2158.592
aF2258.034
aF2258.112
aF2291.729
aF2310.327
aF2318.666
asS'O'
p5
(lp6
I1
aI1
aI1
aI1
aI1
aI1
aI1
aI1
aI1
aI1
aI1
aI1
aI1
aI1
aI1
aI1
aI1
aI1
aI1
aI1
aI1
aI1
aI1
aI1
aI1
aI1
aI1
aI1
aI1
aI1
aI1
aI1
aI1
aI1
aI1
aI1
aI1
aI1
aI1
aI1
aI1
aI1
aI1
aI1
aI1
aI1
aI1
aI1
aI1
aI1
aI1
aI1
aI1
aI1
aI1
aI1
aI1
aI1
aI1
aI1
aI1
aI1
aI1
aI1
aI1
aI1
aI1
aI1
aI1
aI1
aI1
aI1
aI1
aI1
aI1
aI1
aI1
aI1
aI1
aI1
aI1
aI1
aI1
aI1
aI1
aI1
aI1
aI1
aI1
aI1
aI1
aI1
aI1
aI1
aI1
aI1
aI1
aI1
aI1
aI1
aI1
aI1
aI1
aI1
aI1
aI1
aI1
aI1
aI1
aI1
aI1
aI1
aI1
aI1
aI1
aI1
aI1
asS't_end'
p7
F2319.838
sb.